; Function Attrs: nounwind uwtable
define internal ptr @dh_gen_init(ptr noundef %0, i32 noundef %1, ptr noundef %2) #0 {
  %4 = tail call ptr @ossl_prov_ctx_get0_libctx(ptr noundef %0) #8
  %5 = tail call i32 @ossl_prov_is_running() #8
  %.not.i = icmp eq i32 %5, 0
  %6 = and i32 %1, 7
  %7 = icmp eq i32 %6, 0
  %or.cond.i = or i1 %7, %.not.i
  br i1 %or.cond.i, label %dh_gen_init_base.exit, label %8

8:                                                ; preds = %3
  %9 = tail call noalias ptr @CRYPTO_zalloc(i64 noundef 120, ptr noundef nonnull @.str, i32 noundef 460) #8
  %.not25.i = icmp eq ptr %9, null
  br i1 %.not25.i, label %.split.i, label %.split23.i

.split23.i:                                       ; preds = %8
  %10 = getelementptr inbounds nuw i8, ptr %9, i64 16
  store i32 %1, ptr %10, align 8, !tbaa !3
  store ptr %4, ptr %9, align 8, !tbaa !13
  %11 = getelementptr inbounds nuw i8, ptr %9, i64 24
  store i64 2048, ptr %11, align 8, !tbaa !14
  %12 = getelementptr inbounds nuw i8, ptr %9, i64 32
  store i64 224, ptr %12, align 8, !tbaa !15
  %13 = getelementptr inbounds nuw i8, ptr %9, i64 80
  store ptr null, ptr %13, align 8, !tbaa !16
  %14 = getelementptr inbounds nuw i8, ptr %9, i64 60
  store i32 0, ptr %14, align 4, !tbaa !17
  %15 = getelementptr inbounds nuw i8, ptr %9, i64 56
  store i32 -1, ptr %15, align 8, !tbaa !18
  %16 = getelementptr inbounds nuw i8, ptr %9, i64 72
  store i32 0, ptr %16, align 8, !tbaa !19
  %17 = getelementptr inbounds nuw i8, ptr %9, i64 68
  store i32 -1, ptr %17, align 4, !tbaa !20
  %18 = getelementptr inbounds nuw i8, ptr %9, i64 64
  store i32 2, ptr %18, align 8, !tbaa !21
  %19 = getelementptr inbounds nuw i8, ptr %9, i64 112
  store i32 0, ptr %19, align 8, !tbaa !22
  br label %.split.i

.split.i:                                         ; preds = %.split23.i, %8
  %20 = tail call i32 @dh_gen_set_params(ptr noundef %9, ptr noundef %2)
  %.not26.i = icmp eq i32 %20, 0
  br i1 %.not26.i, label %21, label %dh_gen_init_base.exit

21:                                               ; preds = %.split.i
  tail call void @CRYPTO_free(ptr noundef %9, ptr noundef nonnull @.str, i32 noundef 482) #8
  br label %dh_gen_init_base.exit

dh_gen_init_base.exit:                            ; preds = %3, %.split.i, %21
  %.021.i = phi ptr [ null, %3 ], [ %9, %.split.i ], [ null, %21 ]
  ret ptr %.021.i
}